target datalayout = "e-m:e-p270:32:32-p271:32:32-p272:64:64-i64:64-i128:128-f80:128-n8:16:32:64-S128"
target triple = "x86_64-unknown-linux-gnu"

%"struct.std::_Vector_base" = type { %"struct.std::_Vector_base<std::__cxx11::basic_string<char>, std::allocator<std::__cxx11::basic_string<char>>>::_Vector_impl" }
%"struct.std::_Vector_base<std::__cxx11::basic_string<char>, std::allocator<std::__cxx11::basic_string<char>>>::_Vector_impl" = type { %"struct.std::_Vector_base<std::__cxx11::basic_string<char>, std::allocator<std::__cxx11::basic_string<char>>>::_Vector_impl_data" }
%"struct.std::_Vector_base<std::__cxx11::basic_string<char>, std::allocator<std::__cxx11::basic_string<char>>>::_Vector_impl_data" = type { ptr, ptr, ptr }
%"class.Assimp::MDL::HalfLife::HL1MDLLoader" = type { ptr, ptr, ptr, ptr, ptr, ptr, ptr, ptr, ptr, ptr, i32, %"class.std::vector.0", %"class.Assimp::MDL::HalfLife::UniqueNameGenerator", %"class.std::vector", %"class.std::vector", %"class.std::vector.8", i32, i32 }
%"class.std::vector.0" = type { %"struct.std::_Vector_base.1" }
%"struct.std::_Vector_base.1" = type { %"struct.std::_Vector_base<aiNode *, std::allocator<aiNode *>>::_Vector_impl" }
%"struct.std::_Vector_base<aiNode *, std::allocator<aiNode *>>::_Vector_impl" = type { %"struct.std::_Vector_base<aiNode *, std::allocator<aiNode *>>::_Vector_impl_data" }
%"struct.std::_Vector_base<aiNode *, std::allocator<aiNode *>>::_Vector_impl_data" = type { ptr, ptr, ptr }
%"class.Assimp::MDL::HalfLife::UniqueNameGenerator" = type { %"class.std::__cxx11::basic_string", %"class.std::__cxx11::basic_string" }
%"class.std::__cxx11::basic_string" = type { %"struct.std::__cxx11::basic_string<char>::_Alloc_hider", i64, %union.anon }
%"struct.std::__cxx11::basic_string<char>::_Alloc_hider" = type { ptr }
%union.anon = type { i64, [8 x i8] }
%"class.std::vector" = type { %"struct.std::_Vector_base" }
%"class.std::vector.8" = type { %"struct.std::_Vector_base.9" }
%"struct.std::_Vector_base.9" = type { %"struct.std::_Vector_base<Assimp::MDL::HalfLife::HL1MDLLoader::TempBone, std::allocator<Assimp::MDL::HalfLife::HL1MDLLoader::TempBone>>::_Vector_impl" }
%"struct.std::_Vector_base<Assimp::MDL::HalfLife::HL1MDLLoader::TempBone, std::allocator<Assimp::MDL::HalfLife::HL1MDLLoader::TempBone>>::_Vector_impl" = type { %"struct.std::_Vector_base<Assimp::MDL::HalfLife::HL1MDLLoader::TempBone, std::allocator<Assimp::MDL::HalfLife::HL1MDLLoader::TempBone>>::_Vector_impl_data" }
%"struct.std::_Vector_base<Assimp::MDL::HalfLife::HL1MDLLoader::TempBone, std::allocator<Assimp::MDL::HalfLife::HL1MDLLoader::TempBone>>::_Vector_impl_data" = type { ptr, ptr, ptr }
%struct.aiScene = type { i32, ptr, i32, ptr, i32, ptr, i32, ptr, i32, ptr, i32, ptr, i32, ptr, ptr, %struct.aiString, i32, ptr, ptr }
%struct.aiString = type { i32, [1024 x i8] }
%"struct.Assimp::MDL::HalfLife::Header_HL1" = type { %"struct.Assimp::MDL::HalfLife::HalfLifeMDLBaseHeader", [64 x i8], i32, [3 x float], [3 x float], [3 x float], [3 x float], [3 x float], i32, i32, i32, i32, i32, i32, i32, i32, i32, i32, i32, i32, i32, i32, i32, i32, i32, i32, i32, i32, i32, i32, i32, i32, i32, i32, i32 }
%"struct.Assimp::MDL::HalfLife::HalfLifeMDLBaseHeader" = type { [4 x i8], i32 }
%struct.aiTexture = type <{ i32, i32, [9 x i8], [7 x i8], ptr, %struct.aiString, [4 x i8] }>

@.str.11 = private unnamed_addr constant [10 x i8] c"$tex.file\00", align 1

; Function Attrs: mustprogress nounwind uwtable
define linkonce_odr hidden void @_ZN8aiStringC2ERKS_(ptr noundef nonnull align 4 dereferenceable(1028) %this, ptr noundef nonnull align 4 dereferenceable(1028) %rOther) unnamed_addr #0 comdat align 2 {
entry:
  %this.addr = alloca ptr, align 8
  %rOther.addr = alloca ptr, align 8
  store ptr %this, ptr %this.addr, align 8
  store ptr %rOther, ptr %rOther.addr, align 8
  %this1 = load ptr, ptr %this.addr, align 8
  %length = getelementptr inbounds %struct.aiString, ptr %this1, i32 0, i32 0
  %0 = load ptr, ptr %rOther.addr, align 8
  %length2 = getelementptr inbounds %struct.aiString, ptr %0, i32 0, i32 0
  %1 = load i32, ptr %length2, align 4
  store i32 %1, ptr %length, align 4
  %length3 = getelementptr inbounds %struct.aiString, ptr %this1, i32 0, i32 0
  %2 = load i32, ptr %length3, align 4
  %conv = zext i32 %2 to i64
  %cmp = icmp uge i64 %conv, 1024
  br i1 %cmp, label %cond.true, label %cond.false

cond.true:                                        ; preds = %entry
  br label %cond.end

cond.false:                                       ; preds = %entry
  %length4 = getelementptr inbounds %struct.aiString, ptr %this1, i32 0, i32 0
  %3 = load i32, ptr %length4, align 4
  %conv5 = zext i32 %3 to i64
  br label %cond.end

cond.end:                                         ; preds = %cond.false, %cond.true
  %cond = phi i64 [ 1023, %cond.true ], [ %conv5, %cond.false ]
  %conv6 = trunc i64 %cond to i32
  %length7 = getelementptr inbounds %struct.aiString, ptr %this1, i32 0, i32 0
  store i32 %conv6, ptr %length7, align 4
  %data = getelementptr inbounds %struct.aiString, ptr %this1, i32 0, i32 1
  %arraydecay = getelementptr inbounds [1024 x i8], ptr %data, i64 0, i64 0
  %4 = load ptr, ptr %rOther.addr, align 8
  %data8 = getelementptr inbounds %struct.aiString, ptr %4, i32 0, i32 1
  %arraydecay9 = getelementptr inbounds [1024 x i8], ptr %data8, i64 0, i64 0
  %length10 = getelementptr inbounds %struct.aiString, ptr %this1, i32 0, i32 0
  %5 = load i32, ptr %length10, align 4
  %conv11 = zext i32 %5 to i64
  call void @llvm.memcpy.p0.p0.i64(ptr align 4 %arraydecay, ptr align 4 %arraydecay9, i64 %conv11, i1 false)
  %data12 = getelementptr inbounds %struct.aiString, ptr %this1, i32 0, i32 1
  %length13 = getelementptr inbounds %struct.aiString, ptr %this1, i32 0, i32 0
  %6 = load i32, ptr %length13, align 4
  %idxprom = zext i32 %6 to i64
  %arrayidx = getelementptr inbounds [1024 x i8], ptr %data12, i64 0, i64 %idxprom
  store i8 0, ptr %arrayidx, align 1
  ret void
}

; Function Attrs: mustprogress uwtable
define hidden void @_ZN6Assimp3MDL8HalfLife12HL1MDLLoader10read_skinsEv(ptr noundef nonnull align 8 dereferenceable(256) %this) #2 align 2 {
entry:
  %this.addr = alloca ptr, align 8
  %default_skin_ptr = alloca ptr, align 8
  %replacement_skin_ptr = alloca ptr, align 8
  %i = alloca i32, align 4
  %j = alloca i32, align 4
  %skinMaterialId = alloca %struct.aiString, align 4
  store ptr %this, ptr %this.addr, align 8
  %this1 = load ptr, ptr %this.addr, align 8
  %texture_header_ = getelementptr inbounds %"class.Assimp::MDL::HalfLife::HL1MDLLoader", ptr %this1, i32 0, i32 6
  %0 = load ptr, ptr %texture_header_, align 8
  %numskinfamilies = getelementptr inbounds %"struct.Assimp::MDL::HalfLife::Header_HL1", ptr %0, i32 0, i32 23
  %1 = load i32, ptr %numskinfamilies, align 4
  %cmp = icmp sle i32 %1, 1
  br i1 %cmp, label %if.then, label %if.end

if.then:                                          ; preds = %entry
  br label %for.end36

if.end:                                           ; preds = %entry
  %texture_header_2 = getelementptr inbounds %"class.Assimp::MDL::HalfLife::HL1MDLLoader", ptr %this1, i32 0, i32 6
  %2 = load ptr, ptr %texture_header_2, align 8
  %texture_header_3 = getelementptr inbounds %"class.Assimp::MDL::HalfLife::HL1MDLLoader", ptr %this1, i32 0, i32 6
  %3 = load ptr, ptr %texture_header_3, align 8
  %skinindex = getelementptr inbounds %"struct.Assimp::MDL::HalfLife::Header_HL1", ptr %3, i32 0, i32 24
  %4 = load i32, ptr %skinindex, align 4
  %idx.ext = sext i32 %4 to i64
  %add.ptr = getelementptr inbounds i8, ptr %2, i64 %idx.ext
  store ptr %add.ptr, ptr %default_skin_ptr, align 8
  %5 = load ptr, ptr %default_skin_ptr, align 8
  %texture_header_4 = getelementptr inbounds %"class.Assimp::MDL::HalfLife::HL1MDLLoader", ptr %this1, i32 0, i32 6
  %6 = load ptr, ptr %texture_header_4, align 8
  %numskinref = getelementptr inbounds %"struct.Assimp::MDL::HalfLife::Header_HL1", ptr %6, i32 0, i32 22
  %7 = load i32, ptr %numskinref, align 4
  %idx.ext5 = sext i32 %7 to i64
  %add.ptr6 = getelementptr inbounds i16, ptr %5, i64 %idx.ext5
  store ptr %add.ptr6, ptr %replacement_skin_ptr, align 8
  store i32 1, ptr %i, align 4
  br label %for.cond

for.cond:                                         ; preds = %for.inc30, %if.end
  %8 = load i32, ptr %i, align 4
  %texture_header_7 = getelementptr inbounds %"class.Assimp::MDL::HalfLife::HL1MDLLoader", ptr %this1, i32 0, i32 6
  %9 = load ptr, ptr %texture_header_7, align 8
  %numskinfamilies8 = getelementptr inbounds %"struct.Assimp::MDL::HalfLife::Header_HL1", ptr %9, i32 0, i32 23
  %10 = load i32, ptr %numskinfamilies8, align 4
  %cmp9 = icmp slt i32 %8, %10
  br i1 %cmp9, label %for.body, label %for.end36

for.body:                                         ; preds = %for.cond
  store i32 0, ptr %j, align 4
  br label %for.cond10

for.cond10:                                       ; preds = %for.inc, %for.body
  %11 = load i32, ptr %j, align 4
  %texture_header_11 = getelementptr inbounds %"class.Assimp::MDL::HalfLife::HL1MDLLoader", ptr %this1, i32 0, i32 6
  %12 = load ptr, ptr %texture_header_11, align 8
  %numskinref12 = getelementptr inbounds %"struct.Assimp::MDL::HalfLife::Header_HL1", ptr %12, i32 0, i32 22
  %13 = load i32, ptr %numskinref12, align 4
  %cmp13 = icmp slt i32 %11, %13
  br i1 %cmp13, label %for.body14, label %for.end

for.body14:                                       ; preds = %for.cond10
  %14 = load ptr, ptr %default_skin_ptr, align 8
  %15 = load i32, ptr %j, align 4
  %idxprom = sext i32 %15 to i64
  %arrayidx = getelementptr inbounds i16, ptr %14, i64 %idxprom
  %16 = load i16, ptr %arrayidx, align 2
  %conv = sext i16 %16 to i32
  %17 = load ptr, ptr %replacement_skin_ptr, align 8
  %18 = load i32, ptr %j, align 4
  %idxprom15 = sext i32 %18 to i64
  %arrayidx16 = getelementptr inbounds i16, ptr %17, i64 %idxprom15
  %19 = load i16, ptr %arrayidx16, align 2
  %conv17 = sext i16 %19 to i32
  %cmp18 = icmp ne i32 %conv, %conv17
  br i1 %cmp18, label %if.then19, label %if.end29

if.then19:                                        ; preds = %for.body14
  %scene_ = getelementptr inbounds %"class.Assimp::MDL::HalfLife::HL1MDLLoader", ptr %this1, i32 0, i32 0
  %20 = load ptr, ptr %scene_, align 8
  %mTextures = getelementptr inbounds %struct.aiScene, ptr %20, i32 0, i32 9
  %21 = load ptr, ptr %mTextures, align 8
  %22 = load ptr, ptr %replacement_skin_ptr, align 8
  %23 = load i32, ptr %j, align 4
  %idxprom20 = sext i32 %23 to i64
  %arrayidx21 = getelementptr inbounds i16, ptr %22, i64 %idxprom20
  %24 = load i16, ptr %arrayidx21, align 2
  %idxprom22 = sext i16 %24 to i64
  %arrayidx23 = getelementptr inbounds ptr, ptr %21, i64 %idxprom22
  %25 = load ptr, ptr %arrayidx23, align 8
  %mFilename = getelementptr inbounds %struct.aiTexture, ptr %25, i32 0, i32 5
  call void @_ZN8aiStringC2ERKS_(ptr noundef nonnull align 4 dereferenceable(1028) %skinMaterialId, ptr noundef nonnull align 4 dereferenceable(1028) %mFilename)
  %scene_24 = getelementptr inbounds %"class.Assimp::MDL::HalfLife::HL1MDLLoader", ptr %this1, i32 0, i32 0
  %26 = load ptr, ptr %scene_24, align 8
  %mMaterials = getelementptr inbounds %struct.aiScene, ptr %26, i32 0, i32 5
  %27 = load ptr, ptr %mMaterials, align 8
  %28 = load ptr, ptr %default_skin_ptr, align 8
  %29 = load i32, ptr %j, align 4
  %idxprom25 = sext i32 %29 to i64
  %arrayidx26 = getelementptr inbounds i16, ptr %28, i64 %idxprom25
  %30 = load i16, ptr %arrayidx26, align 2
  %idxprom27 = sext i16 %30 to i64
  %arrayidx28 = getelementptr inbounds ptr, ptr %27, i64 %idxprom27
  %31 = load ptr, ptr %arrayidx28, align 8
  %32 = load i32, ptr %i, align 4
  %call = call noundef i32 @_ZN10aiMaterial11AddPropertyEPK8aiStringPKcjj(ptr noundef nonnull align 8 dereferenceable(16) %31, ptr noundef %skinMaterialId, ptr noundef @.str.11, i32 noundef 1, i32 noundef %32)
  br label %if.end29

if.end29:                                         ; preds = %if.then19, %for.body14
  br label %for.inc

for.inc:                                          ; preds = %if.end29
  %33 = load i32, ptr %j, align 4
  %inc = add nsw i32 %33, 1
  store i32 %inc, ptr %j, align 4
  br label %for.cond10, !llvm.loop !10

for.end:                                          ; preds = %for.cond10
  br label %for.inc30

for.inc30:                                        ; preds = %for.end
  %34 = load i32, ptr %i, align 4
  %inc31 = add nsw i32 %34, 1
  store i32 %inc31, ptr %i, align 4
  %texture_header_32 = getelementptr inbounds %"class.Assimp::MDL::HalfLife::HL1MDLLoader", ptr %this1, i32 0, i32 6
  %35 = load ptr, ptr %texture_header_32, align 8
  %numskinref33 = getelementptr inbounds %"struct.Assimp::MDL::HalfLife::Header_HL1", ptr %35, i32 0, i32 22
  %36 = load i32, ptr %numskinref33, align 4
  %37 = load ptr, ptr %replacement_skin_ptr, align 8
  %idx.ext34 = sext i32 %36 to i64
  %add.ptr35 = getelementptr inbounds i16, ptr %37, i64 %idx.ext34
  store ptr %add.ptr35, ptr %replacement_skin_ptr, align 8
  br label %for.cond, !llvm.loop !11

for.end36:                                        ; preds = %for.cond, %if.then
  ret void
}