; Function Attrs: mustprogress uwtable
define hidden void @_ZN6Assimp3MDL8HalfLife12HL1MDLLoader10read_skinsEv(ptr nocapture noundef nonnull readonly align 8 dereferenceable(256) %this) local_unnamed_addr #1 align 2 {
entry:
  %skinMaterialId = alloca %struct.aiString, align 4
  %texture_header_ = getelementptr inbounds i8, ptr %this, i64 48
  %0 = load ptr, ptr %texture_header_, align 8
  %numskinfamilies = getelementptr inbounds i8, ptr %0, i64 196
  %1 = load i32, ptr %numskinfamilies, align 4
  %cmp = icmp slt i32 %1, 2
  br i1 %cmp, label %for.end36, label %for.cond10.preheader.lr.ph

for.cond10.preheader.lr.ph:                       ; preds = %entry
  %skinindex = getelementptr inbounds i8, ptr %0, i64 200
  %2 = load i32, ptr %skinindex, align 4
  %idx.ext = sext i32 %2 to i64
  %add.ptr = getelementptr inbounds i8, ptr %0, i64 %idx.ext
  %numskinref = getelementptr inbounds i8, ptr %0, i64 192
  %3 = load i32, ptr %numskinref, align 4
  %data.i = getelementptr inbounds i8, ptr %skinMaterialId, i64 4
  %4 = icmp sgt i32 %3, 0
  br i1 %4, label %for.cond10.preheader.preheader, label %for.end36

for.cond10.preheader.preheader:                   ; preds = %for.cond10.preheader.lr.ph
  %idx.ext5 = zext nneg i32 %3 to i64
  %add.ptr6 = getelementptr inbounds i16, ptr %add.ptr, i64 %idx.ext5
  br label %for.cond10.preheader

for.cond10.preheader:                             ; preds = %for.cond10.preheader.preheader, %for.inc30
  %5 = phi ptr [ %21, %for.inc30 ], [ %0, %for.cond10.preheader.preheader ]
  %i.018 = phi i32 [ %inc31, %for.inc30 ], [ 1, %for.cond10.preheader.preheader ]
  %replacement_skin_ptr.017 = phi ptr [ %add.ptr35, %for.inc30 ], [ %add.ptr6, %for.cond10.preheader.preheader ]
  %numskinref1212 = getelementptr inbounds i8, ptr %5, i64 192
  %6 = load i32, ptr %numskinref1212, align 4
  %cmp1313 = icmp sgt i32 %6, 0
  br i1 %cmp1313, label %for.body14, label %for.cond10.preheader.for.inc30_crit_edge

for.cond10.preheader.for.inc30_crit_edge:         ; preds = %for.cond10.preheader
  %.pre22 = sext i32 %6 to i64
  br label %for.inc30

for.body14:                                       ; preds = %for.cond10.preheader, %for.inc
  %7 = phi ptr [ %17, %for.inc ], [ %5, %for.cond10.preheader ]
  %8 = phi ptr [ %18, %for.inc ], [ %5, %for.cond10.preheader ]
  %indvars.iv = phi i64 [ %indvars.iv.next, %for.inc ], [ 0, %for.cond10.preheader ]
  %arrayidx = getelementptr inbounds i16, ptr %add.ptr, i64 %indvars.iv
  %9 = load i16, ptr %arrayidx, align 2
  %arrayidx16 = getelementptr inbounds i16, ptr %replacement_skin_ptr.017, i64 %indvars.iv
  %10 = load i16, ptr %arrayidx16, align 2
  %cmp18.not = icmp eq i16 %9, %10
  br i1 %cmp18.not, label %for.inc, label %if.then19

if.then19:                                        ; preds = %for.body14
  %11 = load ptr, ptr %this, align 8
  %mTextures = getelementptr inbounds i8, ptr %11, i64 72
  %12 = load ptr, ptr %mTextures, align 8
  %idxprom22 = sext i16 %10 to i64
  %arrayidx23 = getelementptr inbounds ptr, ptr %12, i64 %idxprom22
  %13 = load ptr, ptr %arrayidx23, align 8
  %mFilename = getelementptr inbounds i8, ptr %13, i64 32
  %14 = load i32, ptr %mFilename, align 4
  %spec.select.i = call i32 @llvm.umin.i32(i32 %14, i32 1023)
  store i32 %spec.select.i, ptr %skinMaterialId, align 4
  %data8.i = getelementptr inbounds i8, ptr %13, i64 36
  %conv11.i = zext nneg i32 %spec.select.i to i64
  call void @llvm.memcpy.p0.p0.i64(ptr nonnull align 4 %data.i, ptr nonnull align 4 %data8.i, i64 %conv11.i, i1 false)
  %arrayidx.i = getelementptr inbounds [1024 x i8], ptr %data.i, i64 0, i64 %conv11.i
  store i8 0, ptr %arrayidx.i, align 1
  %mMaterials = getelementptr inbounds i8, ptr %11, i64 40
  %15 = load ptr, ptr %mMaterials, align 8
  %idxprom27 = sext i16 %9 to i64
  %arrayidx28 = getelementptr inbounds ptr, ptr %15, i64 %idxprom27
  %16 = load ptr, ptr %arrayidx28, align 8
  %call = call noundef i32 @_ZN10aiMaterial11AddPropertyEPK8aiStringPKcjj(ptr noundef nonnull align 8 dereferenceable(16) %16, ptr noundef nonnull %skinMaterialId, ptr noundef nonnull @.str.11, i32 noundef 1, i32 noundef %i.018)
  %.pre = load ptr, ptr %texture_header_, align 8
  br label %for.inc

for.inc:                                          ; preds = %for.body14, %if.then19
  %17 = phi ptr [ %7, %for.body14 ], [ %.pre, %if.then19 ]
  %18 = phi ptr [ %8, %for.body14 ], [ %.pre, %if.then19 ]
  %indvars.iv.next = add nuw nsw i64 %indvars.iv, 1
  %numskinref12 = getelementptr inbounds i8, ptr %18, i64 192
  %19 = load i32, ptr %numskinref12, align 4
  %20 = sext i32 %19 to i64
  %cmp13 = icmp slt i64 %indvars.iv.next, %20
  br i1 %cmp13, label %for.body14, label %for.inc30, !llvm.loop !6

for.inc30:                                        ; preds = %for.inc, %for.cond10.preheader.for.inc30_crit_edge
  %idx.ext34.pre-phi = phi i64 [ %.pre22, %for.cond10.preheader.for.inc30_crit_edge ], [ %20, %for.inc ]
  %21 = phi ptr [ %5, %for.cond10.preheader.for.inc30_crit_edge ], [ %17, %for.inc ]
  %inc31 = add nuw nsw i32 %i.018, 1
  %add.ptr35 = getelementptr inbounds i16, ptr %replacement_skin_ptr.017, i64 %idx.ext34.pre-phi
  %numskinfamilies8 = getelementptr inbounds i8, ptr %21, i64 196
  %22 = load i32, ptr %numskinfamilies8, align 4
  %cmp9 = icmp slt i32 %inc31, %22
  br i1 %cmp9, label %for.cond10.preheader, label %for.end36, !llvm.loop !7

for.end36:                                        ; preds = %for.inc30, %for.cond10.preheader.lr.ph, %entry
  ret void
}